; Function Attrs: nounwind uwtable
define dso_local void @removeChannelsInSlot(i32 noundef %0) local_unnamed_addr #3 {
  %2 = load ptr, ptr getelementptr inbounds nuw (i8, ptr @server, i64 7872), align 8, !tbaa !148
  %3 = tail call i64 @kvstoreDictSize(ptr noundef %2, i32 noundef %0) #33
  %4 = and i64 %3, 4294967295
  %5 = icmp eq i64 %4, 0
  br i1 %5, label %7, label %6

6:                                                ; preds = %1
  tail call void @pubsubShardUnsubscribeAllChannelsInSlot(i32 noundef %0) #33
  br label %7

7:                                                ; preds = %1, %6
  ret void
}